Certificate:
    Data:
        Version: 3 (0x2)
        Serial Number:
            bd:83:76:4c:96:e5:91:b1:de:1c:57:48:f5:40:a8:05
    Signature Algorithm: ecdsa-with-SHA384
        Issuer: C=US, ST=Arizona, L=Scottsdale, O=GoDaddy Inc., CN=Go Daddy Root Certificate Authority - G4
        Validity
            Not Before: Sep 30 07:00:00 2014 GMT
            Not After : Sep 30 07:00:00 2039 GMT
        Subject: C=US, ST=Arizona, L=Scottsdale, O=GoDaddy Inc., CN=Go Daddy Root Certificate Authority - G4
        Subject Public Key Info:
            Public Key Algorithm: id-ecPublicKey
                Public-Key: (384 bit)
                pub: 
                    04:1b:84:11:13:49:97:0b:e0:62:71:5b:b0:c5:09:
                    4b:c7:15:d6:59:23:14:aa:41:3f:b4:ed:b0:a1:fd:
                    96:09:ed:85:be:72:9b:49:b4:ad:fb:d7:41:41:10:
                    7c:84:f8:a7:1c:ff:81:fb:10:2a:9a:b0:d3:30:7e:
                    01:3b:7c:32:e9:e6:a3:3e:ec:39:b3:6d:fe:11:bc:
                    8a:cd:7a:36:53:17:69:f2:50:3a:fb:a2:ac:97:0d:
                    8c:96:ec:6d:f1:ea:45
                ASN1 OID: secp384r1
        X509v3 extensions:
            X509v3 Basic Constraints: critical
                CA:TRUE
            X509v3 Key Usage: critical
                Certificate Sign, CRL Sign
            X509v3 Subject Key Identifier: 
                5D:BC:56:1E:B0:0B:96:CC:8E:FE:07:8C:FC:03:F8:81:8E:BF:79:5C
    Signature Algorithm: ecdsa-with-SHA384
         30:64:02:30:1b:16:d4:5b:df:0d:63:11:b0:8f:25:03:ab:2a:
         ca:aa:1c:92:0f:f1:12:9f:23:a4:b7:ff:fd:fe:e9:af:d0:1d:
         73:6c:b0:a0:ef:f7:11:29:ce:01:11:be:48:b9:47:2a:02:30:
         72:cf:f2:d0:fd:e1:ee:9e:a9:f0:19:29:d0:6a:24:3b:3a:ba:
         88:f6:27:ec:fc:b7:d9:fa:04:30:3d:d0:d3:1c:03:0a:d6:26:
         ef:7b:3f:95:49:21:0b:3c:77:8f:f8:3e
-----BEGIN CERTIFICATE-----
MIICfTCCAgSgAwIBAgIRAL2DdkyW5ZGx3hxXSPVAqAUwCgYIKoZIzj0EAwMwfjEL
MAkGA1UEBhMCVVMxEDAOBgNVBAgTB0FyaXpvbmExEzARBgNVBAcTClNjb3R0c2Rh
bGUxFTATBgNVBAoTDEdvRGFkZHkgSW5jLjExMC8GA1UEAxMoR28gRGFkZHkgUm9v
dCBDZXJ0aWZpY2F0ZSBBdXRob3JpdHkgLSBHNDAiGA8yMDE0MDkzMDA3MDAwMFoY
DzIwMzkwOTMwMDcwMDAwWjB+MQswCQYDVQQGEwJVUzEQMA4GA1UECBMHQXJpem9u
YTETMBEGA1UEBxMKU2NvdHRzZGFsZTEVMBMGA1UEChMMR29EYWRkeSBJbmMuMTEw
LwYDVQQDEyhHbyBEYWRkeSBSb290IENlcnRpZmljYXRlIEF1dGhvcml0eSAtIEc0
MHYwEAYHKoZIzj0CAQYFK4EEACIDYgAEG4QRE0mXC+BicVuwxQlLxxXWWSMUqkE/
tO2wof2WCe2FvnKbSbSt+9dBQRB8hPinHP+B+xAqmrDTMH4BO3wy6eajPuw5s23+
EbyKzXo2Uxdp8lA6+6Kslw2Mluxt8epFo0IwQDAPBgNVHRMBAf8EBTADAQH/MA4G
A1UdDwEB/wQEAwIBBjAdBgNVHQ4EFgQUXbxWHrALlsyO/geM/AP4gY6/eVwwCgYI
KoZIzj0EAwMDZwAwZAIwGxbUW98NYxGwjyUDqyrKqhySD/ESnyOkt//9/umv0B1z
bLCg7/cRKc4BEb5IuUcqAjByz/LQ/eHunqnwGSnQaiQ7OrqI9ifs/LfZ+gQwPdDT
HAMK1ibvez+VSSELPHeP+D4=
-----END CERTIFICATE-----
