Certificate:
    Data:
        Version: 3 (0x2)
        Serial Number:
            58:56:36:b7:32:66:ef:14:a9:d7:ca:42:21:75:9c:d2
    Signature Algorithm: sha256WithRSAEncryption
        Issuer: C=US, ST=Arizona, L=Scottsdale, O=GoDaddy Inc., CN=Go Daddy Root Certificate Authority - G3
        Validity
            Not Before: Sep 30 07:00:00 2014 GMT
            Not After : Sep 30 07:00:00 2039 GMT
        Subject: C=US, ST=Arizona, L=Scottsdale, O=GoDaddy Inc., CN=Go Daddy Root Certificate Authority - G3
        Subject Public Key Info:
            Public Key Algorithm: rsaEncryption
                Public-Key: (4096 bit)
                Modulus:
                    00:bc:b7:0d:4a:54:8f:9f:95:5f:c7:8b:1d:b7:b3:
                    50:a3:9b:02:18:bd:7e:e0:24:6d:4d:42:3e:f9:f9:
                    79:1f:d2:41:83:d8:6b:71:e2:10:22:fd:50:a9:29:
                    44:7b:50:90:16:b7:ac:d6:29:33:53:4b:81:a2:04:
                    f7:07:01:1a:15:09:95:4a:ad:dd:ba:21:85:78:85:
                    ea:2d:a5:62:89:53:e0:10:4c:be:d9:f9:6a:3e:65:
                    c3:d3:aa:03:63:c7:7d:c6:d0:52:c4:7c:a3:0b:5b:
                    d7:f5:f1:0b:85:1d:9c:85:4e:7d:a5:a2:d6:39:f6:
                    2d:4a:7c:a1:be:30:2f:70:ca:9f:01:50:17:d1:bd:
                    4d:bf:77:86:1f:d4:5f:80:70:d4:ec:95:7c:09:35:
                    66:cb:e2:57:86:14:43:18:94:29:1c:5e:bc:b8:a6:
                    14:f6:fb:d1:fa:cf:de:07:8d:8c:79:a3:8e:ca:8e:
                    70:da:f1:bf:4b:d6:c5:90:66:75:1c:42:68:76:b5:
                    c0:ab:ab:d8:df:7a:67:e5:02:36:32:64:c5:a9:77:
                    4c:80:2a:b1:a3:e4:d6:90:ff:8b:8f:3a:9e:60:2c:
                    a7:81:25:5d:68:6e:f9:00:02:27:8d:15:b0:66:3f:
                    9b:14:93:75:46:04:e4:61:41:0d:3e:00:8c:2b:9d:
                    35:3c:31:01:ba:b8:2f:12:c6:36:d0:51:74:f1:b1:
                    37:0c:ef:d0:a9:2a:cf:49:d5:e8:71:b4:76:f1:a0:
                    cb:6c:7c:39:24:f1:87:b0:5a:0b:7d:d3:9d:33:62:
                    81:83:54:8c:b5:8e:58:4d:a7:ec:df:cf:fb:a0:fc:
                    b0:80:21:57:36:76:b1:d8:31:8c:64:2d:25:6b:6d:
                    d8:27:7a:df:c5:d9:90:16:a8:bc:f6:ef:fd:73:7c:
                    0c:c5:e1:5f:20:b2:48:22:80:a6:d3:26:e6:9e:c4:
                    81:ac:7d:9e:b4:6e:7d:3d:3c:8b:17:e8:1b:90:d0:
                    14:a0:db:04:1c:be:7d:58:17:17:2c:52:be:dd:9d:
                    02:de:20:9d:a6:ce:77:00:f7:17:85:ea:31:f8:3c:
                    94:73:a3:46:b4:ab:27:ea:c2:f2:43:0b:ac:52:53:
                    82:2f:4a:85:6f:31:b1:a4:4b:40:00:fd:9c:89:80:
                    b2:f5:ac:85:8a:f0:0b:a7:24:bf:3d:ba:f4:f2:83:
                    b4:6a:bf:92:dc:7d:34:45:74:89:d2:86:9c:e2:c2:
                    4a:f8:c6:95:1e:9f:36:a3:a4:da:7a:88:1a:20:26:
                    bd:2f:56:5e:9f:9d:55:fa:95:31:fa:d5:56:ff:45:
                    01:92:15:b3:34:80:62:91:e7:7c:d6:76:84:5e:0a:
                    aa:22:6f
                Exponent: 65537 (0x10001)
        X509v3 extensions:
            X509v3 Basic Constraints: critical
                CA:TRUE
            X509v3 Key Usage: critical
                Certificate Sign, CRL Sign
            X509v3 Subject Key Identifier: 
                9E:D5:9D:06:23:45:3A:8F:F2:44:0E:48:6F:D4:2C:B8:27:ED:FD:14
    Signature Algorithm: sha256WithRSAEncryption
         b9:c7:66:cd:70:7f:31:3a:da:72:53:57:d5:33:a5:88:2e:ad:
         0a:17:5f:df:01:c7:aa:99:5d:32:92:2e:cd:e8:d4:6e:21:b2:
         66:f8:03:08:62:e1:8e:a4:53:26:40:3e:b9:be:33:c7:e9:78:
         10:1b:fd:ea:2b:48:b0:a3:f1:c0:05:cd:d6:f3:9f:f7:b9:96:
         12:24:93:57:9a:7e:23:d6:ba:ee:42:28:96:4c:52:7e:fe:48:
         a1:e9:77:6e:37:81:27:a0:f3:42:9c:9b:2b:ca:ef:8f:5e:3f:
         48:ac:4e:82:09:84:40:81:a1:5b:ae:aa:37:8f:f6:03:6b:51:
         68:60:65:c5:10:ef:68:47:15:cd:91:32:6f:75:d8:10:17:ba:
         4d:13:be:aa:df:c2:55:f0:f6:10:4e:dc:5c:78:94:ca:c7:79:
         2e:86:2e:07:2f:af:a6:79:73:6a:6e:ee:4b:79:df:b0:0c:dd:
         b3:93:4a:02:9d:64:44:8e:96:af:33:4f:ec:74:b9:6d:02:0a:
         64:a6:6d:e1:06:a1:63:d4:f5:2e:b5:45:93:57:9a:2c:7f:ba:
         fc:ef:ea:0e:1c:f4:6b:77:90:71:3d:df:57:3c:1d:cc:fc:45:
         38:71:02:82:ba:17:d8:77:5a:3e:d5:bf:b3:2e:5c:7d:a1:52:
         a9:cf:80:08:93:dd:e7:7b:d9:e3:be:2e:93:17:80:3b:e3:6e:
         37:94:6b:fe:29:f2:64:d0:9f:f1:70:8d:b6:8b:5e:7f:e1:d3:
         9e:bb:32:47:8a:7b:4f:c4:8a:56:c4:1e:4e:39:e8:2b:38:74:
         8d:b9:34:62:9c:67:bc:c4:b9:7e:18:ef:3b:11:1b:7d:0d:25:
         91:be:79:87:3c:9d:6b:bf:04:3b:53:82:06:4c:e9:ce:97:39:
         ab:7d:e5:10:e4:47:2e:37:3f:19:40:ab:51:7c:c4:e0:50:5c:
         b0:63:f2:51:62:8f:27:45:3d:2a:5d:aa:2e:dc:c8:8e:59:15:
         d7:df:93:4d:34:e3:ee:aa:94:56:2c:b6:a6:ac:ca:a7:d6:37:
         6e:22:d1:96:5e:65:b4:62:38:e5:d5:f7:c2:40:49:2b:5a:b7:
         97:59:49:f3:72:3b:d1:46:ae:0c:7c:ea:2c:77:ea:e4:55:ce:
         9a:93:26:76:30:60:b8:66:22:ad:33:c7:0f:e7:1b:09:c8:6b:
         5a:d5:22:48:5e:ac:b2:6c:a2:f2:3a:de:ff:21:b8:ff:f3:57:
         c5:d7:b8:1e:ec:2d:b8:05:56:6e:86:b5:03:ba:62:22:7b:6d:
         68:d4:9e:79:b8:8d:40:db:2c:6c:ef:0a:d4:e0:2f:fb:9d:00:
         a7:9a:af:dc:27:9c:28:62
-----BEGIN CERTIFICATE-----
MIIFzDCCA7SgAwIBAgIQWFY2tzJm7xSp18pCIXWc0jANBgkqhkiG9w0BAQsFADB+
MQswCQYDVQQGEwJVUzEQMA4GA1UECBMHQXJpem9uYTETMBEGA1UEBxMKU2NvdHRz
ZGFsZTEVMBMGA1UEChMMR29EYWRkeSBJbmMuMTEwLwYDVQQDEyhHbyBEYWRkeSBS
b290IENlcnRpZmljYXRlIEF1dGhvcml0eSAtIEczMCIYDzIwMTQwOTMwMDcwMDAw
WhgPMjAzOTA5MzAwNzAwMDBaMH4xCzAJBgNVBAYTAlVTMRAwDgYDVQQIEwdBcml6
b25hMRMwEQYDVQQHEwpTY290dHNkYWxlMRUwEwYDVQQKEwxHb0RhZGR5IEluYy4x
MTAvBgNVBAMTKEdvIERhZGR5IFJvb3QgQ2VydGlmaWNhdGUgQXV0aG9yaXR5IC0g
RzMwggIiMA0GCSqGSIb3DQEBAQUAA4ICDwAwggIKAoICAQC8tw1KVI+flV/Hix23
s1CjmwIYvX7gJG1NQj75+Xkf0kGD2Gtx4hAi/VCpKUR7UJAWt6zWKTNTS4GiBPcH
ARoVCZVKrd26IYV4heotpWKJU+AQTL7Z+Wo+ZcPTqgNjx33G0FLEfKMLW9f18QuF
HZyFTn2lotY59i1KfKG+MC9wyp8BUBfRvU2/d4Yf1F+AcNTslXwJNWbL4leGFEMY
lCkcXry4phT2+9H6z94HjYx5o47KjnDa8b9L1sWQZnUcQmh2tcCrq9jfemflAjYy
ZMWpd0yAKrGj5NaQ/4uPOp5gLKeBJV1obvkAAieNFbBmP5sUk3VGBORhQQ0+AIwr
nTU8MQG6uC8SxjbQUXTxsTcM79CpKs9J1ehxtHbxoMtsfDkk8YewWgt9050zYoGD
VIy1jlhNp+zfz/ug/LCAIVc2drHYMYxkLSVrbdgnet/F2ZAWqLz27/1zfAzF4V8g
skgigKbTJuaexIGsfZ60bn09PIsX6BuQ0BSg2wQcvn1YFxcsUr7dnQLeIJ2mzncA
9xeF6jH4PJRzo0a0qyfqwvJDC6xSU4IvSoVvMbGkS0AA/ZyJgLL1rIWK8AunJL89
uvTyg7Rqv5LcfTRFdInShpziwkr4xpUenzajpNp6iBogJr0vVl6fnVX6lTH61Vb/
RQGSFbM0gGKR53zWdoReCqoibwIDAQABo0IwQDAPBgNVHRMBAf8EBTADAQH/MA4G
A1UdDwEB/wQEAwIBBjAdBgNVHQ4EFgQUntWdBiNFOo/yRA5Ib9QsuCft/RQwDQYJ
KoZIhvcNAQELBQADggIBALnHZs1wfzE62nJTV9UzpYgurQoXX98Bx6qZXTKSLs3o
1G4hsmb4Awhi4Y6kUyZAPrm+M8fpeBAb/eorSLCj8cAFzdbzn/e5lhIkk1eafiPW
uu5CKJZMUn7+SKHpd243gSeg80KcmyvK749eP0isToIJhECBoVuuqjeP9gNrUWhg
ZcUQ72hHFc2RMm912BAXuk0TvqrfwlXw9hBO3Fx4lMrHeS6GLgcvr6Z5c2pu7kt5
37AM3bOTSgKdZESOlq8zT+x0uW0CCmSmbeEGoWPU9S61RZNXmix/uvzv6g4c9Gt3
kHE931c8Hcz8RThxAoK6F9h3Wj7Vv7MuXH2hUqnPgAiT3ed72eO+LpMXgDvjbjeU
a/4p8mTQn/FwjbaLXn/h0567MkeKe0/EilbEHk456Cs4dI25NGKcZ7zEuX4Y7zsR
G30NJZG+eYc8nWu/BDtTggZM6c6XOat95RDkRy43PxlAq1F8xOBQXLBj8lFijydF
PSpdqi7cyI5ZFdffk0004+6qlFYstqasyqfWN24i0ZZeZbRiOOXV98JASStat5dZ
SfNyO9FGrgx86ix36uRVzpqTJnYwYLhmIq0zxw/nGwnIa1rVIkherLJsovI63v8h
uP/zV8XXuB7sLbgFVm6GtQO6YiJ7bWjUnnm4jUDbLGzvCtTgL/udAKear9wnnChi
-----END CERTIFICATE-----
