Certificate:
    Data:
        Version: 3 (0x2)
        Serial Number:
            b1:a5:d0:12:b1:61:15:59:76:5f:ee:d0:07:25:45:92
    Signature Algorithm: ecdsa-with-SHA384
        Issuer: C=US, ST=Arizona, L=Scottsdale, O=Starfield Technologies, LLC, CN=Starfield Root Certificate Authority - G4
        Validity
            Not Before: Sep 30 07:00:00 2014 GMT
            Not After : Sep 30 07:00:00 2039 GMT
        Subject: C=US, ST=Arizona, L=Scottsdale, O=Starfield Technologies, LLC, CN=Starfield Root Certificate Authority - G4
        Subject Public Key Info:
            Public Key Algorithm: id-ecPublicKey
                Public-Key: (384 bit)
                pub: 
                    04:6a:56:f6:e2:df:a3:21:ca:24:79:45:71:50:13:
                    73:bd:15:b9:07:87:11:bd:37:63:d0:f7:68:fb:7e:
                    d3:bc:37:86:72:24:b8:17:8f:54:30:43:ec:ef:09:
                    db:41:33:36:26:fa:42:a9:e5:fc:02:2f:ee:71:90:
                    13:18:6f:06:4b:8a:b0:c6:98:ac:ba:92:4f:66:a0:
                    e1:7c:27:0d:2c:45:0e:ab:1d:56:49:30:ed:a1:30:
                    53:c5:0b:5d:b3:f8:68
                ASN1 OID: secp384r1
        X509v3 extensions:
            X509v3 Basic Constraints: critical
                CA:TRUE
            X509v3 Key Usage: critical
                Certificate Sign, CRL Sign
            X509v3 Subject Key Identifier: 
                7A:97:C3:3F:D6:FF:96:C2:FA:7A:0E:09:9E:65:16:53:CC:66:9B:C7
    Signature Algorithm: ecdsa-with-SHA384
         30:66:02:31:00:ee:2b:8a:9f:30:c7:c7:c0:4d:18:9b:e4:68:
         ef:48:b5:48:99:80:36:7f:c4:54:44:5c:4b:71:ec:0b:ea:2c:
         47:07:32:eb:79:8c:f5:3b:75:01:5a:2e:ec:00:6e:93:97:02:
         31:00:fe:ee:39:a7:36:d4:63:6f:58:c6:23:ee:ba:3a:f0:11:
         80:fe:80:82:c9:87:9c:40:99:b4:5a:fb:3c:b6:cb:9f:30:f8:
         0c:ad:c7:ed:fb:cb:02:5d:e5:4d:2e:c6:6f:a2
-----BEGIN CERTIFICATE-----
MIICoTCCAiagAwIBAgIRALGl0BKxYRVZdl/u0AclRZIwCgYIKoZIzj0EAwMwgY4x
CzAJBgNVBAYTAlVTMRAwDgYDVQQIEwdBcml6b25hMRMwEQYDVQQHEwpTY290dHNk
YWxlMSQwIgYDVQQKExtTdGFyZmllbGQgVGVjaG5vbG9naWVzLCBMTEMxMjAwBgNV
BAMTKVN0YXJmaWVsZCBSb290IENlcnRpZmljYXRlIEF1dGhvcml0eSAtIEc0MCIY
DzIwMTQwOTMwMDcwMDAwWhgPMjAzOTA5MzAwNzAwMDBaMIGOMQswCQYDVQQGEwJV
UzEQMA4GA1UECBMHQXJpem9uYTETMBEGA1UEBxMKU2NvdHRzZGFsZTEkMCIGA1UE
ChMbU3RhcmZpZWxkIFRlY2hub2xvZ2llcywgTExDMTIwMAYDVQQDEylTdGFyZmll
bGQgUm9vdCBDZXJ0aWZpY2F0ZSBBdXRob3JpdHkgLSBHNDB2MBAGByqGSM49AgEG
BSuBBAAiA2IABGpW9uLfoyHKJHlFcVATc70VuQeHEb03Y9D3aPt+07w3hnIkuBeP
VDBD7O8J20EzNib6Qqnl/AIv7nGQExhvBkuKsMaYrLqST2ag4XwnDSxFDqsdVkkw
7aEwU8ULXbP4aKNCMEAwDwYDVR0TAQH/BAUwAwEB/zAOBgNVHQ8BAf8EBAMCAQYw
HQYDVR0OBBYEFHqXwz/W/5bC+noOCZ5lFlPMZpvHMAoGCCqGSM49BAMDA2kAMGYC
MQDuK4qfMMfHwE0Ym+Ro70i1SJmANn/EVERcS3HsC+osRwcy63mM9Tt1AVou7ABu
k5cCMQD+7jmnNtRjb1jGI+66OvARgP6AgsmHnECZtFr7PLbLnzD4DK3H7fvLAl3l
TS7Gb6I=
-----END CERTIFICATE-----
