Certificate:
    Data:
        Version: 3 (0x2)
        Serial Number:
            37:97:3c:60:2b:ab:78:9c:96:13:69:5b:6c:b0:03:10
    Signature Algorithm: sha256WithRSAEncryption
        Issuer: C=US, ST=Arizona, L=Scottsdale, O=Starfield Technologies, LLC, CN=Starfield Root Certificate Authority - G3
        Validity
            Not Before: Sep 30 07:00:00 2014 GMT
            Not After : Sep 30 07:00:00 2039 GMT
        Subject: C=US, ST=Arizona, L=Scottsdale, O=Starfield Technologies, LLC, CN=Starfield Root Certificate Authority - G3
        Subject Public Key Info:
            Public Key Algorithm: rsaEncryption
                Public-Key: (4096 bit)
                Modulus:
                    00:b4:32:68:1d:d0:09:51:eb:5b:7f:ab:9c:1e:7b:
                    98:cc:7f:9a:cc:cd:49:ee:3f:cb:85:96:03:68:d6:
                    89:bf:8d:32:e7:ff:f8:47:f7:c7:bb:85:e9:45:b2:
                    57:ac:3f:7a:af:3f:e2:23:ad:ee:85:fe:d1:c5:89:
                    30:5b:f6:ea:a8:82:e1:21:6b:c1:8a:65:f1:76:3a:
                    0a:ad:d8:cd:fd:32:a9:13:9f:40:4b:36:05:42:97:
                    49:f5:65:93:7f:db:7f:85:2c:7f:fe:fa:92:77:20:
                    2b:5b:4c:7f:a6:df:2f:54:5a:8a:9f:e4:f1:9c:8d:
                    46:c6:ac:ac:f2:26:5e:b9:85:fc:66:0d:d4:c3:cb:
                    12:6f:fc:c2:53:bb:bb:c1:dc:01:b8:6b:a3:e2:4b:
                    e5:d8:3c:c0:11:3a:68:d5:04:6a:0c:77:69:c5:0b:
                    b7:8e:9d:76:37:4c:ab:1d:81:79:54:aa:7b:d0:32:
                    82:d3:a9:13:5f:8e:87:e7:6e:ac:a3:a4:8a:75:93:
                    3b:d1:cf:8c:a5:d9:bf:60:f4:cc:67:34:47:77:7c:
                    b5:40:35:92:db:d9:22:73:64:c5:24:04:3d:fc:24:
                    2b:1e:dc:98:fd:f9:3f:74:52:77:09:36:ef:b8:1a:
                    dd:8a:ee:b9:39:91:96:da:3d:ff:38:cf:9e:07:6f:
                    b7:ac:4a:02:dc:6d:5f:2d:f7:e5:20:a5:c2:a7:e5:
                    51:fa:cf:a9:14:db:51:82:08:3f:8b:ab:19:cc:f8:
                    af:87:17:f3:96:4b:29:de:6d:fa:9a:5c:59:c4:4d:
                    1d:e2:af:33:69:11:77:4c:f9:4a:81:c9:38:f3:5b:
                    3a:c0:d6:56:0a:73:3f:ec:79:a1:fb:b4:c6:8c:e2:
                    50:49:9c:6e:27:bc:bc:c8:49:82:39:8b:ee:3f:d4:
                    46:e0:2b:ff:b0:4d:47:12:55:6b:23:cf:43:2b:7d:
                    6a:b9:ba:0e:f9:23:b5:60:cd:93:45:79:59:3e:e6:
                    ea:7b:e4:14:d9:11:ea:ff:6c:63:95:bf:e1:a3:5b:
                    5a:e6:76:c7:d2:88:b3:c9:7c:7e:a7:43:ea:48:0d:
                    aa:15:53:d9:93:a9:12:82:26:62:e6:97:16:73:ee:
                    57:44:48:ba:f4:c4:e7:8b:75:c1:68:c3:b4:52:38:
                    6d:31:ce:45:d1:11:b4:74:b1:c1:40:3e:7c:f8:5c:
                    e1:d0:3b:54:17:d3:30:15:2c:aa:03:30:6b:f3:7e:
                    ab:65:86:98:46:84:19:f7:fc:d7:32:da:00:09:c8:
                    b3:be:9d:96:30:a2:8e:62:3c:d1:0d:9b:35:73:d9:
                    e3:03:a9:60:14:f2:16:5d:1d:81:bc:50:cb:39:8c:
                    78:7e:09
                Exponent: 65537 (0x10001)
        X509v3 extensions:
            X509v3 Basic Constraints: critical
                CA:TRUE
            X509v3 Key Usage: critical
                Certificate Sign, CRL Sign
            X509v3 Subject Key Identifier: 
                16:9A:33:EB:AC:E8:CA:D2:DC:66:A7:CB:1F:96:FC:7E:76:6E:40:E3
    Signature Algorithm: sha256WithRSAEncryption
         5d:37:f1:6d:09:0f:a8:45:41:ba:9b:5c:e4:08:cf:ce:71:df:
         35:83:29:19:af:b4:77:37:5a:e3:17:cf:6c:2c:57:34:cd:f6:
         4e:ed:e2:43:7f:c4:d9:f7:40:63:9c:91:35:cb:26:f8:70:34:
         ae:b3:94:1b:69:ae:ff:d0:63:da:46:82:d6:6b:4d:c8:6e:ed:
         e2:fa:b3:e8:ae:cf:b4:d6:2b:09:a7:c9:5e:61:c4:5d:bd:35:
         1c:1a:e2:a1:0e:b4:63:6b:bd:85:3a:d4:10:99:af:10:de:cd:
         f7:99:53:22:f2:0e:8c:e5:32:25:cb:41:19:de:a7:2a:d1:d2:
         2f:2a:18:18:f7:9e:bf:d8:a9:f4:54:1e:7a:20:19:d9:77:e4:
         7b:5d:bc:db:d6:2b:83:17:a3:6e:3c:c4:c9:b7:f6:9e:0f:a3:
         e6:17:75:51:bf:25:0b:b0:1d:e2:94:c8:21:75:ca:99:fc:9f:
         76:64:62:ad:79:f3:06:4d:7b:1a:3f:c0:80:87:25:35:a6:1a:
         a7:f9:f6:5b:43:66:62:07:69:44:26:ca:37:03:98:0c:36:86:
         93:2b:0e:af:6e:39:18:ce:5a:da:ca:89:c7:ad:46:1f:12:79:
         ad:a0:f4:6f:f0:a7:6b:a9:82:f0:7e:63:95:70:b4:a1:0c:59:
         e3:f2:ac:84:86:f6:42:c4:79:4a:5d:1c:bc:9c:e0:16:cc:67:
         ee:06:f4:f4:3e:59:78:1c:02:bc:71:d4:d2:f2:31:4a:a0:8e:
         fb:0c:fc:32:ec:e7:b9:87:bb:30:a6:57:89:23:39:55:08:1d:
         a7:9b:30:15:09:0d:26:14:0d:1e:06:86:5f:5e:94:0d:ac:92:
         aa:1c:03:4e:23:00:6e:a1:71:12:d7:4f:ad:42:dc:c0:50:ca:
         77:75:6d:ac:cb:a3:35:e6:b2:a4:87:93:db:42:89:ba:60:9f:
         9f:57:90:30:29:d6:15:4a:71:28:77:d1:03:5a:94:69:a3:a6:
         27:5e:dd:d9:76:6c:77:53:0e:48:db:76:71:4c:29:2e:e5:0f:
         8f:b4:97:08:f5:36:95:03:f2:81:45:81:71:f1:9a:b6:d2:c2:
         0c:2d:d2:a4:4c:ce:2d:b3:55:ce:f5:ad:5f:7b:39:2a:d5:ca:
         ac:03:4f:a2:d9:75:70:74:6d:a2:32:51:9a:82:7f:e4:14:9f:
         f1:31:2f:49:41:a2:eb:89:04:4c:dc:0b:c1:eb:e3:fe:6c:8e:
         22:71:68:e0:29:df:f3:1b:31:f6:cb:ac:d3:c2:30:0b:ac:7a:
         86:50:83:f6:3d:2d:35:32:6c:a3:ce:e7:4e:05:c3:09:b1:db:
         6a:ec:fb:24:ae:3b:7e:ac
-----BEGIN CERTIFICATE-----
MIIF7jCCA9agAwIBAgIQN5c8YCureJyWE2lbbLADEDANBgkqhkiG9w0BAQsFADCB
jjELMAkGA1UEBhMCVVMxEDAOBgNVBAgTB0FyaXpvbmExEzARBgNVBAcTClNjb3R0
c2RhbGUxJDAiBgNVBAoTG1N0YXJmaWVsZCBUZWNobm9sb2dpZXMsIExMQzEyMDAG
A1UEAxMpU3RhcmZpZWxkIFJvb3QgQ2VydGlmaWNhdGUgQXV0aG9yaXR5IC0gRzMw
IhgPMjAxNDA5MzAwNzAwMDBaGA8yMDM5MDkzMDA3MDAwMFowgY4xCzAJBgNVBAYT
AlVTMRAwDgYDVQQIEwdBcml6b25hMRMwEQYDVQQHEwpTY290dHNkYWxlMSQwIgYD
VQQKExtTdGFyZmllbGQgVGVjaG5vbG9naWVzLCBMTEMxMjAwBgNVBAMTKVN0YXJm
aWVsZCBSb290IENlcnRpZmljYXRlIEF1dGhvcml0eSAtIEczMIICIjANBgkqhkiG
9w0BAQEFAAOCAg8AMIICCgKCAgEAtDJoHdAJUetbf6ucHnuYzH+azM1J7j/LhZYD
aNaJv40y5//4R/fHu4XpRbJXrD96rz/iI63uhf7RxYkwW/bqqILhIWvBimXxdjoK
rdjN/TKpE59ASzYFQpdJ9WWTf9t/hSx//vqSdyArW0x/pt8vVFqKn+TxnI1Gxqys
8iZeuYX8Zg3Uw8sSb/zCU7u7wdwBuGuj4kvl2DzAETpo1QRqDHdpxQu3jp12N0yr
HYF5VKp70DKC06kTX46H526so6SKdZM70c+Mpdm/YPTMZzRHd3y1QDWS29kic2TF
JAQ9/CQrHtyY/fk/dFJ3CTbvuBrdiu65OZGW2j3/OM+eB2+3rEoC3G1fLfflIKXC
p+VR+s+pFNtRggg/i6sZzPivhxfzlksp3m36mlxZxE0d4q8zaRF3TPlKgck481s6
wNZWCnM/7Hmh+7TGjOJQSZxuJ7y8yEmCOYvuP9RG4Cv/sE1HElVrI89DK31quboO
+SO1YM2TRXlZPubqe+QU2RHq/2xjlb/ho1ta5nbH0oizyXx+p0PqSA2qFVPZk6kS
giZi5pcWc+5XREi69MTni3XBaMO0UjhtMc5F0RG0dLHBQD58+Fzh0DtUF9MwFSyq
AzBr836rZYaYRoQZ9/zXMtoACcizvp2WMKKOYjzRDZs1c9njA6lgFPIWXR2BvFDL
OYx4fgkCAwEAAaNCMEAwDwYDVR0TAQH/BAUwAwEB/zAOBgNVHQ8BAf8EBAMCAQYw
HQYDVR0OBBYEFBaaM+us6MrS3Ganyx+W/H52bkDjMA0GCSqGSIb3DQEBCwUAA4IC
AQBdN/FtCQ+oRUG6m1zkCM/Ocd81gykZr7R3N1rjF89sLFc0zfZO7eJDf8TZ90Bj
nJE1yyb4cDSus5Qbaa7/0GPaRoLWa03Ibu3i+rPors+01isJp8leYcRdvTUcGuKh
DrRja72FOtQQma8Q3s33mVMi8g6M5TIly0EZ3qcq0dIvKhgY956/2Kn0VB56IBnZ
d+R7Xbzb1iuDF6NuPMTJt/aeD6PmF3VRvyULsB3ilMghdcqZ/J92ZGKtefMGTXsa
P8CAhyU1phqn+fZbQ2ZiB2lEJso3A5gMNoaTKw6vbjkYzlrayonHrUYfEnmtoPRv
8KdrqYLwfmOVcLShDFnj8qyEhvZCxHlKXRy8nOAWzGfuBvT0Pll4HAK8cdTS8jFK
oI77DPwy7Oe5h7swpleJIzlVCB2nmzAVCQ0mFA0eBoZfXpQNrJKqHANOIwBuoXES
10+tQtzAUMp3dW2sy6M15rKkh5PbQom6YJ+fV5AwKdYVSnEod9EDWpRpo6YnXt3Z
dmx3Uw5I23ZxTCku5Q+PtJcI9TaVA/KBRYFx8Zq20sIMLdKkTM4ts1XO9a1fezkq
1cqsA0+i2XVwdG2iMlGagn/kFJ/xMS9JQaLriQRM3AvB6+P+bI4icWjgKd/zGzH2
y6zTwjALrHqGUIP2PS01MmyjzudOBcMJsdtq7Pskrjt+rA==
-----END CERTIFICATE-----
